target datalayout = "e-m:e-p270:32:32-p271:32:32-p272:64:64-i64:64-i128:128-f80:128-n8:16:32:64-S128"
target triple = "x86_64-pc-linux-gnu"

%struct.nstime_t = type { i64, i32 }
%struct._packet_info = type { ptr, ptr, i32, i32, %struct.nstime_t, %struct.nstime_t, %struct.nstime_t, i8, ptr, ptr, ptr, ptr, %struct._address, %struct._address, %struct._address, %struct._address, %struct._address, %struct._address, i32, ptr, i8, [3 x i8], %struct.anon.1, i32, i32, i32, i32, ptr, i8, ptr, ptr, i16, i16, i32, i32, i16, i32, i32, ptr, ptr, ptr, i8, i8, i16, i16, i16, i32, i16, i16, ptr, ptr, ptr, ptr, ptr, i32, i32 }
%struct._address = type { i32, i32, ptr, ptr }
%struct.anon.1 = type { i8, [3 x i8] }
%struct._e_guid_t = type { i32, i16, i16, [8 x i8] }

@hf_ldap_guid = internal global i32 0, align 4
@ldapvalue_string = internal global ptr null, align 8
@.str.906 = private unnamed_addr constant [49 x i8] c"%08x-%04x-%04x-%02x%02x-%02x%02x%02x%02x%02x%02x\00", align 1
@__const.dissect_ldap_guid.drep = private unnamed_addr constant [4 x i8] c"\10\00\00\00", align 1

; Function Attrs: null_pointer_is_valid sspstrong uwtable
define internal i32 @dissect_ldap_guid(ptr noundef %0, ptr noundef %1, ptr noundef %2, ptr noundef %3) #0 {
  %5 = alloca ptr, align 8
  %6 = alloca ptr, align 8
  %7 = alloca ptr, align 8
  %8 = alloca ptr, align 8
  %9 = alloca [4 x i8], align 1
  %10 = alloca %struct._e_guid_t, align 4
  store ptr %0, ptr %5, align 8
  store ptr %1, ptr %6, align 8
  store ptr %2, ptr %7, align 8
  store ptr %3, ptr %8, align 8
  call void @llvm.lifetime.start.p0(i64 4, ptr %9) #16
  call void @llvm.memcpy.p0.p0.i64(ptr align 1 %9, ptr align 1 @__const.dissect_ldap_guid.drep, i64 4, i1 false)
  call void @llvm.lifetime.start.p0(i64 16, ptr %10) #16
  %11 = load ptr, ptr %5, align 8
  %12 = load ptr, ptr %6, align 8
  %13 = load ptr, ptr %7, align 8
  %14 = getelementptr inbounds [4 x i8], ptr %9, i64 0, i64 0
  %15 = load i32, ptr @hf_ldap_guid, align 4
  %16 = call i32 @dissect_dcerpc_uuid_t(ptr noundef %11, i32 noundef 0, ptr noundef %12, ptr noundef %13, ptr noundef %14, i32 noundef %15, ptr noundef %10)
  %17 = load ptr, ptr %6, align 8
  %18 = getelementptr inbounds nuw %struct._packet_info, ptr %17, i32 0, i32 51
  %19 = load ptr, ptr %18, align 8
  %20 = call noalias ptr @wmem_alloc(ptr noundef %19, i64 noundef 1024) #20
  store ptr %20, ptr @ldapvalue_string, align 8
  %21 = load ptr, ptr @ldapvalue_string, align 8
  %22 = load ptr, ptr @ldapvalue_string, align 8
  %23 = call i64 @llvm.objectsize.i64.p0(ptr %22, i1 false, i1 true, i1 true)
  %24 = getelementptr inbounds nuw %struct._e_guid_t, ptr %10, i32 0, i32 0
  %25 = load i32, ptr %24, align 4
  %26 = getelementptr inbounds nuw %struct._e_guid_t, ptr %10, i32 0, i32 1
  %27 = load i16, ptr %26, align 4
  %28 = zext i16 %27 to i32
  %29 = getelementptr inbounds nuw %struct._e_guid_t, ptr %10, i32 0, i32 2
  %30 = load i16, ptr %29, align 2
  %31 = zext i16 %30 to i32
  %32 = getelementptr inbounds nuw %struct._e_guid_t, ptr %10, i32 0, i32 3
  %33 = getelementptr [8 x i8], ptr %32, i64 0, i64 0
  %34 = load i8, ptr %33, align 4
  %35 = zext i8 %34 to i32
  %36 = getelementptr inbounds nuw %struct._e_guid_t, ptr %10, i32 0, i32 3
  %37 = getelementptr [8 x i8], ptr %36, i64 0, i64 1
  %38 = load i8, ptr %37, align 1
  %39 = zext i8 %38 to i32
  %40 = getelementptr inbounds nuw %struct._e_guid_t, ptr %10, i32 0, i32 3
  %41 = getelementptr [8 x i8], ptr %40, i64 0, i64 2
  %42 = load i8, ptr %41, align 2
  %43 = zext i8 %42 to i32
  %44 = getelementptr inbounds nuw %struct._e_guid_t, ptr %10, i32 0, i32 3
  %45 = getelementptr [8 x i8], ptr %44, i64 0, i64 3
  %46 = load i8, ptr %45, align 1
  %47 = zext i8 %46 to i32
  %48 = getelementptr inbounds nuw %struct._e_guid_t, ptr %10, i32 0, i32 3
  %49 = getelementptr [8 x i8], ptr %48, i64 0, i64 4
  %50 = load i8, ptr %49, align 4
  %51 = zext i8 %50 to i32
  %52 = getelementptr inbounds nuw %struct._e_guid_t, ptr %10, i32 0, i32 3
  %53 = getelementptr [8 x i8], ptr %52, i64 0, i64 5
  %54 = load i8, ptr %53, align 1
  %55 = zext i8 %54 to i32
  %56 = getelementptr inbounds nuw %struct._e_guid_t, ptr %10, i32 0, i32 3
  %57 = getelementptr [8 x i8], ptr %56, i64 0, i64 6
  %58 = load i8, ptr %57, align 2
  %59 = zext i8 %58 to i32
  %60 = getelementptr inbounds nuw %struct._e_guid_t, ptr %10, i32 0, i32 3
  %61 = getelementptr [8 x i8], ptr %60, i64 0, i64 7
  %62 = load i8, ptr %61, align 1
  %63 = zext i8 %62 to i32
  %64 = call i32 (ptr, i64, i32, i64, ptr, ...) @__snprintf_chk(ptr noundef %21, i64 noundef 1023, i32 noundef 2, i64 noundef %23, ptr noundef @.str.906, i32 noundef %25, i32 noundef %28, i32 noundef %31, i32 noundef %35, i32 noundef %39, i32 noundef %43, i32 noundef %47, i32 noundef %51, i32 noundef %55, i32 noundef %59, i32 noundef %63)
  %65 = load ptr, ptr %5, align 8
  %66 = call i32 @tvb_captured_length(ptr noundef %65)
  call void @llvm.lifetime.end.p0(i64 16, ptr %10) #16
  call void @llvm.lifetime.end.p0(i64 4, ptr %9) #16
  ret i32 %66
}