; Function Attrs: null_pointer_is_valid sspstrong uwtable
define internal i32 @dissect_ldap_guid(ptr noundef %0, ptr noundef %1, ptr noundef %2, ptr readnone captures(none) %3) #0 {
  %5 = alloca [4 x i8], align 4
  %6 = alloca %struct._e_guid_t, align 4
  call void @llvm.lifetime.start.p0(i64 4, ptr nonnull %5) #14
  store i32 16, ptr %5, align 4
  call void @llvm.lifetime.start.p0(i64 16, ptr nonnull %6) #14
  %7 = load i32, ptr @hf_ldap_guid, align 4
  %8 = call i32 @dissect_dcerpc_uuid_t(ptr noundef %0, i32 noundef 0, ptr noundef %1, ptr noundef %2, ptr noundef nonnull %5, i32 noundef %7, ptr noundef nonnull %6)
  %9 = getelementptr inbounds nuw i8, ptr %1, i64 408
  %10 = load ptr, ptr %9, align 8
  %11 = call noalias dereferenceable_or_null(1024) ptr @wmem_alloc(ptr noundef %10, i64 noundef 1024) #18
  store ptr %11, ptr @ldapvalue_string, align 8
  %12 = load i32, ptr %6, align 4
  %13 = getelementptr inbounds nuw i8, ptr %6, i64 4
  %14 = load i16, ptr %13, align 4
  %15 = zext i16 %14 to i32
  %16 = getelementptr inbounds nuw i8, ptr %6, i64 6
  %17 = load i16, ptr %16, align 2
  %18 = zext i16 %17 to i32
  %19 = getelementptr inbounds nuw i8, ptr %6, i64 8
  %20 = load i8, ptr %19, align 4
  %21 = zext i8 %20 to i32
  %22 = getelementptr inbounds nuw i8, ptr %6, i64 9
  %23 = load i8, ptr %22, align 1
  %24 = zext i8 %23 to i32
  %25 = getelementptr inbounds nuw i8, ptr %6, i64 10
  %26 = load i8, ptr %25, align 2
  %27 = zext i8 %26 to i32
  %28 = getelementptr inbounds nuw i8, ptr %6, i64 11
  %29 = load i8, ptr %28, align 1
  %30 = zext i8 %29 to i32
  %31 = getelementptr inbounds nuw i8, ptr %6, i64 12
  %32 = load i8, ptr %31, align 4
  %33 = zext i8 %32 to i32
  %34 = getelementptr inbounds nuw i8, ptr %6, i64 13
  %35 = load i8, ptr %34, align 1
  %36 = zext i8 %35 to i32
  %37 = getelementptr inbounds nuw i8, ptr %6, i64 14
  %38 = load i8, ptr %37, align 2
  %39 = zext i8 %38 to i32
  %40 = getelementptr inbounds nuw i8, ptr %6, i64 15
  %41 = load i8, ptr %40, align 1
  %42 = zext i8 %41 to i32
  %43 = call i32 (ptr, i64, i32, i64, ptr, ...) @__snprintf_chk(ptr noundef %11, i64 noundef 1023, i32 noundef 2, i64 noundef 1024, ptr noundef nonnull @.str.906, i32 noundef %12, i32 noundef %15, i32 noundef %18, i32 noundef %21, i32 noundef %24, i32 noundef %27, i32 noundef %30, i32 noundef %33, i32 noundef %36, i32 noundef %39, i32 noundef %42)
  %44 = call i32 @tvb_captured_length(ptr noundef %0)
  call void @llvm.lifetime.end.p0(i64 16, ptr nonnull %6) #14
  call void @llvm.lifetime.end.p0(i64 4, ptr nonnull %5) #14
  ret i32 %44
}